ARM GAS  C:\Users\Caesar\AppData\Local\Temp\cca5y8nl.s 			page 1


   1              		.syntax unified
   2              		.cpu cortex-m3
   3              		.fpu softvfp
   4              		.eabi_attribute 20, 1
   5              		.eabi_attribute 21, 1
   6              		.eabi_attribute 23, 3
   7              		.eabi_attribute 24, 1
   8              		.eabi_attribute 25, 1
   9              		.eabi_attribute 26, 1
  10              		.eabi_attribute 30, 1
  11              		.eabi_attribute 34, 1
  12              		.eabi_attribute 18, 4
  13              		.thumb
  14              		.syntax unified
  15              		.file	"main.c"
  16              		.text
  17              	.Ltext0:
  18              		.cfi_sections	.debug_frame
  19              		.section	.text.Targetchanging,"ax",%progbits
  20              		.align	2
  21              		.global	Targetchanging
  22              		.thumb
  23              		.thumb_func
  24              		.type	Targetchanging, %function
  25              	Targetchanging:
  26              	.LFB69:
  27              		.file 1 "main.c"
   1:main.c        **** /* ========================================
   2:main.c        ****  *
   3:main.c        ****  * Copyright YOUR COMPANY, THE YEAR
   4:main.c        ****  * All Rights Reserved
   5:main.c        ****  * UNPUBLISHED, LICENSED SOFTWARE.
   6:main.c        ****  *
   7:main.c        ****  * CONFIDENTIAL AND PROPRIETARY INFORMATION
   8:main.c        ****  * WHICH IS THE PROPERTY OF your company.
   9:main.c        ****  *
  10:main.c        ****  * ========================================
  11:main.c        **** */
  12:main.c        **** #include "project.h"
  13:main.c        **** #include "stdio.h"
  14:main.c        **** #include "stdlib.h"
  15:main.c        **** #include "string.h"
  16:main.c        **** 
  17:main.c        **** // Parameters for motor 1
  18:main.c        **** signed short int cnt1 = 0;
  19:main.c        **** signed short int target1 = 0;
  20:main.c        **** int error1 = 0;
  21:main.c        **** int last_error1 = 0;
  22:main.c        **** int derivative1 = 0;
  23:main.c        **** int integral1 = 0;
  24:main.c        **** int duty_cycle1 = 0;
  25:main.c        **** char transmitbuffer1[2]; // transmit buffer taken out for testing purposes
  26:main.c        **** char stopbyte1 = 'x';
  27:main.c        **** 
  28:main.c        **** // Parameters for motor 2
  29:main.c        **** signed short int cnt2 = 0;
  30:main.c        **** signed short int target2 = 0;
ARM GAS  C:\Users\Caesar\AppData\Local\Temp\cca5y8nl.s 			page 2


  31:main.c        **** int error2 = 0;
  32:main.c        **** int last_error2 = 0;
  33:main.c        **** int derivative2 = 0;
  34:main.c        **** int integral2 = 0;
  35:main.c        **** int duty_cycle2 = 0;
  36:main.c        **** char transmitbuffer2[2]; // transmit buffer taken out for testing purposes
  37:main.c        **** int transmit2 = 0;
  38:main.c        **** char stopbyte2 = 'y';
  39:main.c        **** 
  40:main.c        **** // Parameter for both
  41:main.c        **** char new_get;
  42:main.c        **** char new_target[16];
  43:main.c        **** char concatination[2];
  44:main.c        **** uint8 counts[8];
  45:main.c        **** uint8 multitasking = 1;
  46:main.c        **** int transmit = 0;
  47:main.c        **** 
  48:main.c        **** // The following function is a non-general implementation of 
  49:main.c        **** // finding out how long the sending array is.
  50:main.c        **** // Needed near the duty cycle calculaion
  51:main.c        **** int bytesCharArrayNeeds(int dutyCycle) {
  52:main.c        ****     int arrSize = 1;
  53:main.c        ****     if (dutyCycle >= 10) {
  54:main.c        ****       arrSize += 1;
  55:main.c        ****     }
  56:main.c        ****     if (dutyCycle >= 100) {
  57:main.c        ****       arrSize += 1;
  58:main.c        ****     }
  59:main.c        ****     if (dutyCycle >= 1000) {
  60:main.c        ****       arrSize += 1;
  61:main.c        ****     }
  62:main.c        ****     if (dutyCycle >= 10000) {
  63:main.c        ****       arrSize += 1;
  64:main.c        ****     }
  65:main.c        ****   return arrSize;
  66:main.c        **** }
  67:main.c        **** 
  68:main.c        **** // only works for a two byte integer, no nothing larger than 16000-ish
  69:main.c        **** uint8 firstByte(short int number) {
  70:main.c        ****     return (number & 0xFF00) >> 8;
  71:main.c        **** }
  72:main.c        **** 
  73:main.c        **** uint8 forthByte(short int number) {
  74:main.c        ****     return 0x00FF & number;
  75:main.c        **** }
  76:main.c        **** 
  77:main.c        **** signed short int combineBytes(uint8 firstByte, uint8 secondByte) {
  78:main.c        ****   return ((firstByte << 8) & 0xFF00) | (0x00FF & secondByte);
  79:main.c        **** }
  80:main.c        **** 
  81:main.c        **** 
  82:main.c        **** // PID Control for both motors
  83:main.c        **** CY_ISR(MotorControl) {
  84:main.c        ****     /*
  85:main.c        ****         The code below is for contorl of motor1
  86:main.c        ****     */
  87:main.c        ****     
ARM GAS  C:\Users\Caesar\AppData\Local\Temp\cca5y8nl.s 			page 3


  88:main.c        ****     // Get the current position
  89:main.c        ****     cnt1 = QuadDec_1_GetCounter();
  90:main.c        ****     //sprintf(transmitbuffer1,"Count1: %d \r\n",cnt1);
  91:main.c        ****     //UART_PutString(transmitbuffer1);
  92:main.c        ****     
  93:main.c        ****     // Calculate the error
  94:main.c        ****     error1 = target1 - cnt1;
  95:main.c        **** 
  96:main.c        ****     //Calculate the integral
  97:main.c        ****     integral1 = integral1 + error1;
  98:main.c        ****     
  99:main.c        ****     // Calculate the Derivative
 100:main.c        ****     derivative1 = error1 - last_error1;
 101:main.c        **** 
 102:main.c        ****     //Calculate the control variable
 103:main.c        ****     duty_cycle1 = 100 * error1 + 0 * integral1 + 50 * derivative1;
 104:main.c        ****     
 105:main.c        ****     
 106:main.c        ****     // Limit the control variable within 100
 107:main.c        ****     if (duty_cycle1 > 32000){duty_cycle1 = 32000;}
 108:main.c        ****     else if (duty_cycle1 < -32000){duty_cycle1 = -32000;}
 109:main.c        ****     
 110:main.c        ****     //Limit the dead zone
 111:main.c        ****     if (duty_cycle1 < 50 && duty_cycle1 > -50){
 112:main.c        ****         PWM_1_WriteCompare(0);
 113:main.c        ****     }
 114:main.c        ****     
 115:main.c        ****     // If the control variable is positive, run the motor clockwise
 116:main.c        ****     if (duty_cycle1 > 0){
 117:main.c        ****         Direction_1_1_Write(0);
 118:main.c        ****         Direction_1_2_Write(1);
 119:main.c        ****         PWM_1_WriteCompare(duty_cycle1);
 120:main.c        ****     }
 121:main.c        ****     
 122:main.c        ****     // If the control variable is negative, run the motor counterclockwise
 123:main.c        ****     else if (duty_cycle1 < 0){
 124:main.c        ****         Direction_1_1_Write(1);
 125:main.c        ****         Direction_1_2_Write(0);
 126:main.c        ****         PWM_1_WriteCompare(-1*duty_cycle1);
 127:main.c        ****     }
 128:main.c        ****     
 129:main.c        ****     // If the control variable is zero, stop the motor
 130:main.c        ****     else{
 131:main.c        ****         Direction_1_1_Write(0);
 132:main.c        ****         Direction_1_2_Write(0);
 133:main.c        ****     }
 134:main.c        ****     last_error1 = error1;
 135:main.c        ****     
 136:main.c        ****     /*
 137:main.c        ****         The code below is for control of motor 2
 138:main.c        ****     */
 139:main.c        ****     
 140:main.c        ****     // Get the current position
 141:main.c        ****     cnt2 = QuadDec_2_GetCounter();
 142:main.c        ****     //sprintf(transmitbuffer2,"Count2: %d \r\n",cnt2);
 143:main.c        ****     //UART_PutString(transmitbuffer2);
 144:main.c        ****     
ARM GAS  C:\Users\Caesar\AppData\Local\Temp\cca5y8nl.s 			page 4


 145:main.c        ****     // Calculate the error
 146:main.c        ****     error2 = target2 - cnt2;
 147:main.c        **** 
 148:main.c        **** 
 149:main.c        ****     //Calculate the integral
 150:main.c        ****     integral2 = integral2 + error2;
 151:main.c        ****     
 152:main.c        ****     // Calculate the Derivative
 153:main.c        ****     derivative2 = error2 - last_error2;
 154:main.c        **** 
 155:main.c        ****     //Calculate the control variable
 156:main.c        ****     duty_cycle2 = 100 * error2 + 0 * integral2 + 50 * derivative2;
 157:main.c        ****     
 158:main.c        ****     
 159:main.c        ****     // Limit the control variable within 100
 160:main.c        ****     if (duty_cycle2 > 32000){duty_cycle2 = 32000;}
 161:main.c        ****     else if (duty_cycle2 < -32000){duty_cycle2 = -32000;}
 162:main.c        ****     
 163:main.c        ****     //Limit the dead zone
 164:main.c        ****     if (duty_cycle2 < 50 && duty_cycle2 > -50){
 165:main.c        ****         PWM_2_WriteCompare(0);
 166:main.c        ****     }
 167:main.c        ****     
 168:main.c        ****     // If the control variable is positive, run the motor clockwise
 169:main.c        ****     if (duty_cycle2 > 0){
 170:main.c        ****         Direction_2_1_Write(0);
 171:main.c        ****         Direction_2_2_Write(1);
 172:main.c        ****         PWM_2_WriteCompare(duty_cycle2);
 173:main.c        ****     }
 174:main.c        ****     
 175:main.c        ****     // If the control variable is negative, run the motor counterclockwise
 176:main.c        ****     else if (duty_cycle2 < 0){
 177:main.c        ****         Direction_2_1_Write(1);
 178:main.c        ****         Direction_2_2_Write(0);
 179:main.c        ****         PWM_2_WriteCompare(-1*duty_cycle2);
 180:main.c        ****     }
 181:main.c        ****     
 182:main.c        ****     // If the control variable is zero, stop the motor
 183:main.c        ****     else{
 184:main.c        ****         Direction_2_1_Write(0);
 185:main.c        ****         Direction_2_2_Write(0);
 186:main.c        ****     }
 187:main.c        ****     last_error2 = error2;
 188:main.c        ****     
 189:main.c        ****     // Scheduling for storing data into a 6 bytes array
 190:main.c        ****     multitasking += 1;
 191:main.c        ****     if (multitasking % 32 == 0) {
 192:main.c        ****         if (transmit == 0){
 193:main.c        ****             counts[0] = 0x00;
 194:main.c        ****             counts[1] = 0x00;
 195:main.c        ****             counts[2] = firstByte(cnt1);
 196:main.c        ****             counts[3] = forthByte(cnt1);
 197:main.c        ****             counts[4] = firstByte(cnt2);
 198:main.c        ****             counts[5] = forthByte(cnt2);
 199:main.c        ****             counts[6] = 0x00;
 200:main.c        ****             counts[7] = 0x00;
 201:main.c        ****             transmit = 1;
ARM GAS  C:\Users\Caesar\AppData\Local\Temp\cca5y8nl.s 			page 5


 202:main.c        ****         }
 203:main.c        ****     }
 204:main.c        **** 
 205:main.c        **** }
 206:main.c        **** 
 207:main.c        **** // Logic of getting new target position, implemented in UART_Rx_Interrupt
 208:main.c        **** CY_ISR(Targetchanging){
  28              		.loc 1 208 0
  29              		.cfi_startproc
  30              		@ args = 0, pretend = 0, frame = 0
  31              		@ frame_needed = 0, uses_anonymous_args = 0
  32 0000 10B5     		push	{r4, lr}
  33              		.cfi_def_cfa_offset 8
  34              		.cfi_offset 4, -8
  35              		.cfi_offset 14, -4
 209:main.c        ****     
 210:main.c        ****     // Once receive a new byte, start building a new target position
 211:main.c        ****     new_get = UART_GetChar();
  36              		.loc 1 211 0
  37 0002 FFF7FEFF 		bl	UART_GetChar
  38              	.LVL0:
  39 0006 164B     		ldr	r3, .L6
  40 0008 1870     		strb	r0, [r3]
 212:main.c        ****     
 213:main.c        ****     // If the new byte is the stopbyte of target1, assign target1 with the new_target string
 214:main.c        ****     if (new_get == stopbyte1){
  41              		.loc 1 214 0
  42 000a 164B     		ldr	r3, .L6+4
  43 000c 1B78     		ldrb	r3, [r3]	@ zero_extendqisi2
  44 000e 9842     		cmp	r0, r3
  45 0010 0CD1     		bne	.L2
 215:main.c        ****         target1 = atoi(new_target);
  46              		.loc 1 215 0
  47 0012 154C     		ldr	r4, .L6+8
  48 0014 2046     		mov	r0, r4
  49 0016 FFF7FEFF 		bl	atoi
  50              	.LVL1:
  51 001a 144B     		ldr	r3, .L6+12
  52 001c 1880     		strh	r0, [r3]	@ movhi
 216:main.c        ****         new_target[0] = '\0';
  53              		.loc 1 216 0
  54 001e 0023     		movs	r3, #0
  55 0020 2370     		strb	r3, [r4]
 217:main.c        ****         concatination[0] = '\0';
  56              		.loc 1 217 0
  57 0022 134A     		ldr	r2, .L6+16
  58 0024 1370     		strb	r3, [r2]
 218:main.c        ****         UART_ClearRxBuffer();
  59              		.loc 1 218 0
  60 0026 FFF7FEFF 		bl	UART_ClearRxBuffer
  61              	.LVL2:
  62 002a 10BD     		pop	{r4, pc}
  63              	.L2:
 219:main.c        ****     }
 220:main.c        ****     // If the new byte is the stopbyte of target2, assign target2 with the new_target string
 221:main.c        ****     else if (new_get == stopbyte2){
  64              		.loc 1 221 0
ARM GAS  C:\Users\Caesar\AppData\Local\Temp\cca5y8nl.s 			page 6


  65 002c 0D4B     		ldr	r3, .L6+4
  66 002e 5B78     		ldrb	r3, [r3, #1]	@ zero_extendqisi2
  67 0030 9842     		cmp	r0, r3
  68 0032 0CD1     		bne	.L4
 222:main.c        ****         target2 = atoi(new_target);
  69              		.loc 1 222 0
  70 0034 0C4C     		ldr	r4, .L6+8
  71 0036 2046     		mov	r0, r4
  72 0038 FFF7FEFF 		bl	atoi
  73              	.LVL3:
  74 003c 0B4B     		ldr	r3, .L6+12
  75 003e 5880     		strh	r0, [r3, #2]	@ movhi
 223:main.c        ****         new_target[0] = '\0';
  76              		.loc 1 223 0
  77 0040 0023     		movs	r3, #0
  78 0042 2370     		strb	r3, [r4]
 224:main.c        ****         concatination[0] = '\0';
  79              		.loc 1 224 0
  80 0044 0A4A     		ldr	r2, .L6+16
  81 0046 1370     		strb	r3, [r2]
 225:main.c        ****         UART_ClearRxBuffer();
  82              		.loc 1 225 0
  83 0048 FFF7FEFF 		bl	UART_ClearRxBuffer
  84              	.LVL4:
  85 004c 10BD     		pop	{r4, pc}
  86              	.L4:
  87              	.LBB2:
 226:main.c        ****     }
 227:main.c        ****     // If the new byte is not the stopbyte of anyone, concatinate the new byte to the new_target st
 228:main.c        ****     else {
 229:main.c        ****         concatination[0] = new_get;
  88              		.loc 1 229 0
  89 004e 0849     		ldr	r1, .L6+16
  90 0050 0870     		strb	r0, [r1]
 230:main.c        ****         concatination[1] = '\0';
  91              		.loc 1 230 0
  92 0052 0023     		movs	r3, #0
  93 0054 4B70     		strb	r3, [r1, #1]
  94              	.LVL5:
 231:main.c        ****         char* concat = concatination;
 232:main.c        ****         strcat(new_target, concat);
  95              		.loc 1 232 0
  96 0056 0448     		ldr	r0, .L6+8
  97 0058 FFF7FEFF 		bl	strcat
  98              	.LVL6:
  99 005c 10BD     		pop	{r4, pc}
 100              	.L7:
 101 005e 00BF     		.align	2
 102              	.L6:
 103 0060 00000000 		.word	new_get
 104 0064 00000000 		.word	.LANCHOR0
 105 0068 00000000 		.word	new_target
 106 006c 00000000 		.word	.LANCHOR1
 107 0070 00000000 		.word	concatination
 108              	.LBE2:
 109              		.cfi_endproc
 110              	.LFE69:
ARM GAS  C:\Users\Caesar\AppData\Local\Temp\cca5y8nl.s 			page 7


 111              		.size	Targetchanging, .-Targetchanging
 112              		.section	.text.bytesCharArrayNeeds,"ax",%progbits
 113              		.align	2
 114              		.global	bytesCharArrayNeeds
 115              		.thumb
 116              		.thumb_func
 117              		.type	bytesCharArrayNeeds, %function
 118              	bytesCharArrayNeeds:
 119              	.LFB64:
  51:main.c        ****     int arrSize = 1;
 120              		.loc 1 51 0
 121              		.cfi_startproc
 122              		@ args = 0, pretend = 0, frame = 0
 123              		@ frame_needed = 0, uses_anonymous_args = 0
 124              		@ link register save eliminated.
 125              	.LVL7:
  53:main.c        ****       arrSize += 1;
 126              		.loc 1 53 0
 127 0000 0928     		cmp	r0, #9
 128 0002 01DC     		bgt	.L13
  52:main.c        ****     if (dutyCycle >= 10) {
 129              		.loc 1 52 0
 130 0004 0123     		movs	r3, #1
 131 0006 00E0     		b	.L9
 132              	.L13:
  54:main.c        ****     }
 133              		.loc 1 54 0
 134 0008 0223     		movs	r3, #2
 135              	.L9:
 136              	.LVL8:
  56:main.c        ****       arrSize += 1;
 137              		.loc 1 56 0
 138 000a 6328     		cmp	r0, #99
 139 000c 00DD     		ble	.L10
  57:main.c        ****     }
 140              		.loc 1 57 0
 141 000e 0133     		adds	r3, r3, #1
 142              	.LVL9:
 143              	.L10:
  59:main.c        ****       arrSize += 1;
 144              		.loc 1 59 0
 145 0010 B0F57A7F 		cmp	r0, #1000
 146 0014 00DB     		blt	.L11
  60:main.c        ****     }
 147              		.loc 1 60 0
 148 0016 0133     		adds	r3, r3, #1
 149              	.LVL10:
 150              	.L11:
  62:main.c        ****       arrSize += 1;
 151              		.loc 1 62 0
 152 0018 42F20F72 		movw	r2, #9999
 153 001c 9042     		cmp	r0, r2
 154 001e 00DD     		ble	.L12
  63:main.c        ****     }
 155              		.loc 1 63 0
 156 0020 0133     		adds	r3, r3, #1
 157              	.LVL11:
ARM GAS  C:\Users\Caesar\AppData\Local\Temp\cca5y8nl.s 			page 8


 158              	.L12:
  66:main.c        **** 
 159              		.loc 1 66 0
 160 0022 1846     		mov	r0, r3
 161              	.LVL12:
 162 0024 7047     		bx	lr
 163              		.cfi_endproc
 164              	.LFE64:
 165              		.size	bytesCharArrayNeeds, .-bytesCharArrayNeeds
 166 0026 00BF     		.section	.text.firstByte,"ax",%progbits
 167              		.align	2
 168              		.global	firstByte
 169              		.thumb
 170              		.thumb_func
 171              		.type	firstByte, %function
 172              	firstByte:
 173              	.LFB65:
  69:main.c        ****     return (number & 0xFF00) >> 8;
 174              		.loc 1 69 0
 175              		.cfi_startproc
 176              		@ args = 0, pretend = 0, frame = 0
 177              		@ frame_needed = 0, uses_anonymous_args = 0
 178              		@ link register save eliminated.
 179              	.LVL13:
  71:main.c        **** 
 180              		.loc 1 71 0
 181 0000 C0F30720 		ubfx	r0, r0, #8, #8
 182              	.LVL14:
 183 0004 7047     		bx	lr
 184              		.cfi_endproc
 185              	.LFE65:
 186              		.size	firstByte, .-firstByte
 187 0006 00BF     		.section	.text.forthByte,"ax",%progbits
 188              		.align	2
 189              		.global	forthByte
 190              		.thumb
 191              		.thumb_func
 192              		.type	forthByte, %function
 193              	forthByte:
 194              	.LFB66:
  73:main.c        ****     return 0x00FF & number;
 195              		.loc 1 73 0
 196              		.cfi_startproc
 197              		@ args = 0, pretend = 0, frame = 0
 198              		@ frame_needed = 0, uses_anonymous_args = 0
 199              		@ link register save eliminated.
 200              	.LVL15:
  75:main.c        **** 
 201              		.loc 1 75 0
 202 0000 C0B2     		uxtb	r0, r0
 203              	.LVL16:
 204 0002 7047     		bx	lr
 205              		.cfi_endproc
 206              	.LFE66:
 207              		.size	forthByte, .-forthByte
 208              		.section	.text.MotorControl,"ax",%progbits
 209              		.align	2
ARM GAS  C:\Users\Caesar\AppData\Local\Temp\cca5y8nl.s 			page 9


 210              		.global	MotorControl
 211              		.thumb
 212              		.thumb_func
 213              		.type	MotorControl, %function
 214              	MotorControl:
 215              	.LFB68:
  83:main.c        ****     /*
 216              		.loc 1 83 0
 217              		.cfi_startproc
 218              		@ args = 0, pretend = 0, frame = 0
 219              		@ frame_needed = 0, uses_anonymous_args = 0
 220 0000 F8B5     		push	{r3, r4, r5, r6, r7, lr}
 221              		.cfi_def_cfa_offset 24
 222              		.cfi_offset 3, -24
 223              		.cfi_offset 4, -20
 224              		.cfi_offset 5, -16
 225              		.cfi_offset 6, -12
 226              		.cfi_offset 7, -8
 227              		.cfi_offset 14, -4
  89:main.c        ****     //sprintf(transmitbuffer1,"Count1: %d \r\n",cnt1);
 228              		.loc 1 89 0
 229 0002 FFF7FEFF 		bl	QuadDec_1_GetCounter
 230              	.LVL17:
 231 0006 644A     		ldr	r2, .L31
 232 0008 9080     		strh	r0, [r2, #4]	@ movhi
  94:main.c        **** 
 233              		.loc 1 94 0
 234 000a B2F90030 		ldrsh	r3, [r2]
 235 000e 181A     		subs	r0, r3, r0
 236 0010 9060     		str	r0, [r2, #8]
  97:main.c        ****     
 237              		.loc 1 97 0
 238 0012 D368     		ldr	r3, [r2, #12]
 239 0014 0344     		add	r3, r3, r0
 240 0016 D360     		str	r3, [r2, #12]
 100:main.c        **** 
 241              		.loc 1 100 0
 242 0018 1369     		ldr	r3, [r2, #16]
 243 001a C31A     		subs	r3, r0, r3
 244 001c 5361     		str	r3, [r2, #20]
 103:main.c        ****     
 245              		.loc 1 103 0
 246 001e 3221     		movs	r1, #50
 247 0020 01FB03F3 		mul	r3, r1, r3
 248 0024 6421     		movs	r1, #100
 249 0026 01FB0030 		mla	r0, r1, r0, r3
 250 002a 9061     		str	r0, [r2, #24]
 107:main.c        ****     else if (duty_cycle1 < -32000){duty_cycle1 = -32000;}
 251              		.loc 1 107 0
 252 002c B0F5FA4F 		cmp	r0, #32000
 253 0030 04DD     		ble	.L17
 107:main.c        ****     else if (duty_cycle1 < -32000){duty_cycle1 = -32000;}
 254              		.loc 1 107 0 is_stmt 0 discriminator 1
 255 0032 4FF4FA42 		mov	r2, #32000
 256 0036 584B     		ldr	r3, .L31
 257 0038 9A61     		str	r2, [r3, #24]
 258 003a 05E0     		b	.L18
ARM GAS  C:\Users\Caesar\AppData\Local\Temp\cca5y8nl.s 			page 10


 259              	.L17:
 108:main.c        ****     
 260              		.loc 1 108 0 is_stmt 1
 261 003c 10F5FA4F 		cmn	r0, #32000
 262 0040 02DA     		bge	.L18
 108:main.c        ****     
 263              		.loc 1 108 0 is_stmt 0 discriminator 1
 264 0042 564A     		ldr	r2, .L31+4
 265 0044 544B     		ldr	r3, .L31
 266 0046 9A61     		str	r2, [r3, #24]
 267              	.L18:
 111:main.c        ****         PWM_1_WriteCompare(0);
 268              		.loc 1 111 0 is_stmt 1
 269 0048 534B     		ldr	r3, .L31
 270 004a 9B69     		ldr	r3, [r3, #24]
 271 004c 3133     		adds	r3, r3, #49
 272 004e 622B     		cmp	r3, #98
 273 0050 02D8     		bhi	.L19
 112:main.c        ****     }
 274              		.loc 1 112 0
 275 0052 0020     		movs	r0, #0
 276 0054 FFF7FEFF 		bl	PWM_1_WriteCompare
 277              	.LVL18:
 278              	.L19:
 116:main.c        ****         Direction_1_1_Write(0);
 279              		.loc 1 116 0
 280 0058 4F4B     		ldr	r3, .L31
 281 005a 9B69     		ldr	r3, [r3, #24]
 282 005c 002B     		cmp	r3, #0
 283 005e 0ADD     		ble	.L20
 117:main.c        ****         Direction_1_2_Write(1);
 284              		.loc 1 117 0
 285 0060 0020     		movs	r0, #0
 286 0062 FFF7FEFF 		bl	Direction_1_1_Write
 287              	.LVL19:
 118:main.c        ****         PWM_1_WriteCompare(duty_cycle1);
 288              		.loc 1 118 0
 289 0066 0120     		movs	r0, #1
 290 0068 FFF7FEFF 		bl	Direction_1_2_Write
 291              	.LVL20:
 119:main.c        ****     }
 292              		.loc 1 119 0
 293 006c 4A4B     		ldr	r3, .L31
 294 006e 188B     		ldrh	r0, [r3, #24]
 295 0070 FFF7FEFF 		bl	PWM_1_WriteCompare
 296              	.LVL21:
 297 0074 14E0     		b	.L21
 298              	.L20:
 123:main.c        ****         Direction_1_1_Write(1);
 299              		.loc 1 123 0
 300 0076 002B     		cmp	r3, #0
 301 0078 0CDA     		bge	.L22
 124:main.c        ****         Direction_1_2_Write(0);
 302              		.loc 1 124 0
 303 007a 0120     		movs	r0, #1
 304 007c FFF7FEFF 		bl	Direction_1_1_Write
 305              	.LVL22:
ARM GAS  C:\Users\Caesar\AppData\Local\Temp\cca5y8nl.s 			page 11


 125:main.c        ****         PWM_1_WriteCompare(-1*duty_cycle1);
 306              		.loc 1 125 0
 307 0080 0020     		movs	r0, #0
 308 0082 FFF7FEFF 		bl	Direction_1_2_Write
 309              	.LVL23:
 126:main.c        ****     }
 310              		.loc 1 126 0
 311 0086 444B     		ldr	r3, .L31
 312 0088 9869     		ldr	r0, [r3, #24]
 313 008a 4042     		negs	r0, r0
 314 008c 80B2     		uxth	r0, r0
 315 008e FFF7FEFF 		bl	PWM_1_WriteCompare
 316              	.LVL24:
 317 0092 05E0     		b	.L21
 318              	.L22:
 131:main.c        ****         Direction_1_2_Write(0);
 319              		.loc 1 131 0
 320 0094 0020     		movs	r0, #0
 321 0096 FFF7FEFF 		bl	Direction_1_1_Write
 322              	.LVL25:
 132:main.c        ****     }
 323              		.loc 1 132 0
 324 009a 0020     		movs	r0, #0
 325 009c FFF7FEFF 		bl	Direction_1_2_Write
 326              	.LVL26:
 327              	.L21:
 134:main.c        ****     
 328              		.loc 1 134 0
 329 00a0 3D4C     		ldr	r4, .L31
 330 00a2 A368     		ldr	r3, [r4, #8]
 331 00a4 2361     		str	r3, [r4, #16]
 141:main.c        ****     //sprintf(transmitbuffer2,"Count2: %d \r\n",cnt2);
 332              		.loc 1 141 0
 333 00a6 FFF7FEFF 		bl	QuadDec_2_GetCounter
 334              	.LVL27:
 335 00aa A083     		strh	r0, [r4, #28]	@ movhi
 146:main.c        **** 
 336              		.loc 1 146 0
 337 00ac B4F90230 		ldrsh	r3, [r4, #2]
 338 00b0 181A     		subs	r0, r3, r0
 339 00b2 2062     		str	r0, [r4, #32]
 150:main.c        ****     
 340              		.loc 1 150 0
 341 00b4 636A     		ldr	r3, [r4, #36]
 342 00b6 0344     		add	r3, r3, r0
 343 00b8 6362     		str	r3, [r4, #36]
 153:main.c        **** 
 344              		.loc 1 153 0
 345 00ba A36A     		ldr	r3, [r4, #40]
 346 00bc C31A     		subs	r3, r0, r3
 347 00be E362     		str	r3, [r4, #44]
 156:main.c        ****     
 348              		.loc 1 156 0
 349 00c0 3222     		movs	r2, #50
 350 00c2 02FB03F3 		mul	r3, r2, r3
 351 00c6 6422     		movs	r2, #100
 352 00c8 02FB0030 		mla	r0, r2, r0, r3
ARM GAS  C:\Users\Caesar\AppData\Local\Temp\cca5y8nl.s 			page 12


 353 00cc 2063     		str	r0, [r4, #48]
 160:main.c        ****     else if (duty_cycle2 < -32000){duty_cycle2 = -32000;}
 354              		.loc 1 160 0
 355 00ce B0F5FA4F 		cmp	r0, #32000
 356 00d2 03DD     		ble	.L23
 160:main.c        ****     else if (duty_cycle2 < -32000){duty_cycle2 = -32000;}
 357              		.loc 1 160 0 is_stmt 0 discriminator 1
 358 00d4 4FF4FA42 		mov	r2, #32000
 359 00d8 2263     		str	r2, [r4, #48]
 360 00da 05E0     		b	.L24
 361              	.L23:
 161:main.c        ****     
 362              		.loc 1 161 0 is_stmt 1
 363 00dc 10F5FA4F 		cmn	r0, #32000
 364 00e0 02DA     		bge	.L24
 161:main.c        ****     
 365              		.loc 1 161 0 is_stmt 0 discriminator 1
 366 00e2 2E4A     		ldr	r2, .L31+4
 367 00e4 2C4B     		ldr	r3, .L31
 368 00e6 1A63     		str	r2, [r3, #48]
 369              	.L24:
 164:main.c        ****         PWM_2_WriteCompare(0);
 370              		.loc 1 164 0 is_stmt 1
 371 00e8 2B4B     		ldr	r3, .L31
 372 00ea 1B6B     		ldr	r3, [r3, #48]
 373 00ec 3133     		adds	r3, r3, #49
 374 00ee 622B     		cmp	r3, #98
 375 00f0 02D8     		bhi	.L25
 165:main.c        ****     }
 376              		.loc 1 165 0
 377 00f2 0020     		movs	r0, #0
 378 00f4 FFF7FEFF 		bl	PWM_2_WriteCompare
 379              	.LVL28:
 380              	.L25:
 169:main.c        ****         Direction_2_1_Write(0);
 381              		.loc 1 169 0
 382 00f8 274B     		ldr	r3, .L31
 383 00fa 1B6B     		ldr	r3, [r3, #48]
 384 00fc 002B     		cmp	r3, #0
 385 00fe 0ADD     		ble	.L26
 170:main.c        ****         Direction_2_2_Write(1);
 386              		.loc 1 170 0
 387 0100 0020     		movs	r0, #0
 388 0102 FFF7FEFF 		bl	Direction_2_1_Write
 389              	.LVL29:
 171:main.c        ****         PWM_2_WriteCompare(duty_cycle2);
 390              		.loc 1 171 0
 391 0106 0120     		movs	r0, #1
 392 0108 FFF7FEFF 		bl	Direction_2_2_Write
 393              	.LVL30:
 172:main.c        ****     }
 394              		.loc 1 172 0
 395 010c 224B     		ldr	r3, .L31
 396 010e 188E     		ldrh	r0, [r3, #48]
 397 0110 FFF7FEFF 		bl	PWM_2_WriteCompare
 398              	.LVL31:
 399 0114 14E0     		b	.L27
ARM GAS  C:\Users\Caesar\AppData\Local\Temp\cca5y8nl.s 			page 13


 400              	.L26:
 176:main.c        ****         Direction_2_1_Write(1);
 401              		.loc 1 176 0
 402 0116 002B     		cmp	r3, #0
 403 0118 0CDA     		bge	.L28
 177:main.c        ****         Direction_2_2_Write(0);
 404              		.loc 1 177 0
 405 011a 0120     		movs	r0, #1
 406 011c FFF7FEFF 		bl	Direction_2_1_Write
 407              	.LVL32:
 178:main.c        ****         PWM_2_WriteCompare(-1*duty_cycle2);
 408              		.loc 1 178 0
 409 0120 0020     		movs	r0, #0
 410 0122 FFF7FEFF 		bl	Direction_2_2_Write
 411              	.LVL33:
 179:main.c        ****     }
 412              		.loc 1 179 0
 413 0126 1C4B     		ldr	r3, .L31
 414 0128 186B     		ldr	r0, [r3, #48]
 415 012a 4042     		negs	r0, r0
 416 012c 80B2     		uxth	r0, r0
 417 012e FFF7FEFF 		bl	PWM_2_WriteCompare
 418              	.LVL34:
 419 0132 05E0     		b	.L27
 420              	.L28:
 184:main.c        ****         Direction_2_2_Write(0);
 421              		.loc 1 184 0
 422 0134 0020     		movs	r0, #0
 423 0136 FFF7FEFF 		bl	Direction_2_1_Write
 424              	.LVL35:
 185:main.c        ****     }
 425              		.loc 1 185 0
 426 013a 0020     		movs	r0, #0
 427 013c FFF7FEFF 		bl	Direction_2_2_Write
 428              	.LVL36:
 429              	.L27:
 187:main.c        ****     
 430              		.loc 1 187 0
 431 0140 154B     		ldr	r3, .L31
 432 0142 1A6A     		ldr	r2, [r3, #32]
 433 0144 9A62     		str	r2, [r3, #40]
 190:main.c        ****     if (multitasking % 32 == 0) {
 434              		.loc 1 190 0
 435 0146 164A     		ldr	r2, .L31+8
 436 0148 9378     		ldrb	r3, [r2, #2]	@ zero_extendqisi2
 437 014a 0133     		adds	r3, r3, #1
 438 014c DBB2     		uxtb	r3, r3
 439 014e 9370     		strb	r3, [r2, #2]
 191:main.c        ****         if (transmit == 0){
 440              		.loc 1 191 0
 441 0150 13F01F0F 		tst	r3, #31
 442 0154 1FD1     		bne	.L16
 192:main.c        ****             counts[0] = 0x00;
 443              		.loc 1 192 0
 444 0156 104B     		ldr	r3, .L31
 445 0158 5B6B     		ldr	r3, [r3, #52]
 446 015a E3B9     		cbnz	r3, .L16
ARM GAS  C:\Users\Caesar\AppData\Local\Temp\cca5y8nl.s 			page 14


 193:main.c        ****             counts[1] = 0x00;
 447              		.loc 1 193 0
 448 015c 114C     		ldr	r4, .L31+12
 449 015e 0025     		movs	r5, #0
 450 0160 2570     		strb	r5, [r4]
 194:main.c        ****             counts[2] = firstByte(cnt1);
 451              		.loc 1 194 0
 452 0162 6570     		strb	r5, [r4, #1]
 195:main.c        ****             counts[3] = forthByte(cnt1);
 453              		.loc 1 195 0
 454 0164 0C4E     		ldr	r6, .L31
 455 0166 B6F90470 		ldrsh	r7, [r6, #4]
 456 016a 3846     		mov	r0, r7
 457 016c FFF7FEFF 		bl	firstByte
 458              	.LVL37:
 459 0170 A070     		strb	r0, [r4, #2]
 196:main.c        ****             counts[4] = firstByte(cnt2);
 460              		.loc 1 196 0
 461 0172 3846     		mov	r0, r7
 462 0174 FFF7FEFF 		bl	forthByte
 463              	.LVL38:
 464 0178 E070     		strb	r0, [r4, #3]
 197:main.c        ****             counts[5] = forthByte(cnt2);
 465              		.loc 1 197 0
 466 017a B6F91C70 		ldrsh	r7, [r6, #28]
 467 017e 3846     		mov	r0, r7
 468 0180 FFF7FEFF 		bl	firstByte
 469              	.LVL39:
 470 0184 2071     		strb	r0, [r4, #4]
 198:main.c        ****             counts[6] = 0x00;
 471              		.loc 1 198 0
 472 0186 3846     		mov	r0, r7
 473 0188 FFF7FEFF 		bl	forthByte
 474              	.LVL40:
 475 018c 6071     		strb	r0, [r4, #5]
 199:main.c        ****             counts[7] = 0x00;
 476              		.loc 1 199 0
 477 018e A571     		strb	r5, [r4, #6]
 200:main.c        ****             transmit = 1;
 478              		.loc 1 200 0
 479 0190 E571     		strb	r5, [r4, #7]
 201:main.c        ****         }
 480              		.loc 1 201 0
 481 0192 0123     		movs	r3, #1
 482 0194 7363     		str	r3, [r6, #52]
 483              	.L16:
 484 0196 F8BD     		pop	{r3, r4, r5, r6, r7, pc}
 485              	.L32:
 486              		.align	2
 487              	.L31:
 488 0198 00000000 		.word	.LANCHOR1
 489 019c 0083FFFF 		.word	-32000
 490 01a0 00000000 		.word	.LANCHOR0
 491 01a4 00000000 		.word	counts
 492              		.cfi_endproc
 493              	.LFE68:
 494              		.size	MotorControl, .-MotorControl
ARM GAS  C:\Users\Caesar\AppData\Local\Temp\cca5y8nl.s 			page 15


 495              		.section	.text.combineBytes,"ax",%progbits
 496              		.align	2
 497              		.global	combineBytes
 498              		.thumb
 499              		.thumb_func
 500              		.type	combineBytes, %function
 501              	combineBytes:
 502              	.LFB67:
  77:main.c        ****   return ((firstByte << 8) & 0xFF00) | (0x00FF & secondByte);
 503              		.loc 1 77 0
 504              		.cfi_startproc
 505              		@ args = 0, pretend = 0, frame = 0
 506              		@ frame_needed = 0, uses_anonymous_args = 0
 507              		@ link register save eliminated.
 508              	.LVL41:
  78:main.c        **** }
 509              		.loc 1 78 0
 510 0000 41EA0020 		orr	r0, r1, r0, lsl #8
 511              	.LVL42:
  79:main.c        **** 
 512              		.loc 1 79 0
 513 0004 00B2     		sxth	r0, r0
 514 0006 7047     		bx	lr
 515              		.cfi_endproc
 516              	.LFE67:
 517              		.size	combineBytes, .-combineBytes
 518              		.section	.text.main,"ax",%progbits
 519              		.align	2
 520              		.global	main
 521              		.thumb
 522              		.thumb_func
 523              		.type	main, %function
 524              	main:
 525              	.LFB70:
 233:main.c        ****     }
 234:main.c        **** }
 235:main.c        **** 
 236:main.c        **** 
 237:main.c        **** int main(void)
 238:main.c        **** {
 526              		.loc 1 238 0
 527              		.cfi_startproc
 528              		@ args = 0, pretend = 0, frame = 0
 529              		@ frame_needed = 0, uses_anonymous_args = 0
 530 0000 08B5     		push	{r3, lr}
 531              		.cfi_def_cfa_offset 8
 532              		.cfi_offset 3, -8
 533              		.cfi_offset 14, -4
 239:main.c        ****     /* Place your initialization/startup code here (e.g. MyInst_Start()) */
 240:main.c        ****     PWM_1_Start();
 534              		.loc 1 240 0
 535 0002 FFF7FEFF 		bl	PWM_1_Start
 536              	.LVL43:
 241:main.c        ****     QuadDec_1_Start();
 537              		.loc 1 241 0
 538 0006 FFF7FEFF 		bl	QuadDec_1_Start
 539              	.LVL44:
ARM GAS  C:\Users\Caesar\AppData\Local\Temp\cca5y8nl.s 			page 16


 242:main.c        ****     QuadDec_1_SetCounter(0);
 540              		.loc 1 242 0
 541 000a 0020     		movs	r0, #0
 542 000c FFF7FEFF 		bl	QuadDec_1_SetCounter
 543              	.LVL45:
 243:main.c        ****     PWM_2_Start();
 544              		.loc 1 243 0
 545 0010 FFF7FEFF 		bl	PWM_2_Start
 546              	.LVL46:
 244:main.c        ****     QuadDec_2_Start();
 547              		.loc 1 244 0
 548 0014 FFF7FEFF 		bl	QuadDec_2_Start
 549              	.LVL47:
 245:main.c        ****     QuadDec_2_SetCounter(0);
 550              		.loc 1 245 0
 551 0018 0020     		movs	r0, #0
 552 001a FFF7FEFF 		bl	QuadDec_2_SetCounter
 553              	.LVL48:
 246:main.c        ****     UART_Start();
 554              		.loc 1 246 0
 555 001e FFF7FEFF 		bl	UART_Start
 556              	.LVL49:
 247:main.c        ****     Timer_Start(); // Configure and enable timer
 557              		.loc 1 247 0
 558 0022 FFF7FEFF 		bl	Timer_Start
 559              	.LVL50:
 248:main.c        ****     isr_motor_Start(); // Start the timer interrupt
 560              		.loc 1 248 0
 561 0026 FFF7FEFF 		bl	isr_motor_Start
 562              	.LVL51:
 249:main.c        ****     isr_motor_StartEx(MotorControl); // Point to MY_ISR_1 to carry out the interrupt sub-routine of
 563              		.loc 1 249 0
 564 002a 0A48     		ldr	r0, .L38
 565 002c FFF7FEFF 		bl	isr_motor_StartEx
 566              	.LVL52:
 250:main.c        ****     isr_1_Start(); // Start the control variable changing interrupt
 567              		.loc 1 250 0
 568 0030 FFF7FEFF 		bl	isr_1_Start
 569              	.LVL53:
 251:main.c        ****     isr_1_StartEx(Targetchanging); // Point to MY_ISR_2 to carry out the interrupt sub-routine of c
 570              		.loc 1 251 0
 571 0034 0848     		ldr	r0, .L38+4
 572 0036 FFF7FEFF 		bl	isr_1_StartEx
 573              	.LVL54:
 252:main.c        ****     CyGlobalIntEnable; /* Enable global interrupts. */
 574              		.loc 1 252 0
 575              		.syntax unified
 576              	@ 252 "main.c" 1
 577 003a 62B6     		CPSIE   i
 578              	@ 0 "" 2
 579              		.thumb
 580              		.syntax unified
 581              	.L35:
 253:main.c        **** 
 254:main.c        ****     for(;;)
 255:main.c        ****     {
 256:main.c        ****         
ARM GAS  C:\Users\Caesar\AppData\Local\Temp\cca5y8nl.s 			page 17


 257:main.c        ****         /* Place your application code here. */
 258:main.c        ****         
 259:main.c        ****         // Background routine for sending data back to laptop, 32 times slower than the PID routine
 260:main.c        ****         if (transmit == 1){
 582              		.loc 1 260 0
 583 003c 074B     		ldr	r3, .L38+8
 584 003e 5B6B     		ldr	r3, [r3, #52]
 585 0040 012B     		cmp	r3, #1
 586 0042 FBD1     		bne	.L35
 587              	.LVL55:
 588              	.LBB3:
 261:main.c        ****             uint8* p = counts;
 262:main.c        ****             UART_PutArray(p, sizeof(counts));
 589              		.loc 1 262 0
 590 0044 0821     		movs	r1, #8
 591 0046 0648     		ldr	r0, .L38+12
 592 0048 FFF7FEFF 		bl	UART_PutArray
 593              	.LVL56:
 263:main.c        ****             transmit = 0;
 594              		.loc 1 263 0
 595 004c 0022     		movs	r2, #0
 596 004e 034B     		ldr	r3, .L38+8
 597 0050 5A63     		str	r2, [r3, #52]
 598 0052 F3E7     		b	.L35
 599              	.L39:
 600              		.align	2
 601              	.L38:
 602 0054 00000000 		.word	MotorControl
 603 0058 00000000 		.word	Targetchanging
 604 005c 00000000 		.word	.LANCHOR1
 605 0060 00000000 		.word	counts
 606              	.LBE3:
 607              		.cfi_endproc
 608              	.LFE70:
 609              		.size	main, .-main
 610              		.global	transmit
 611              		.global	multitasking
 612              		.comm	counts,8,4
 613              		.comm	concatination,2,4
 614              		.comm	new_target,16,4
 615              		.comm	new_get,1,1
 616              		.global	stopbyte2
 617              		.global	transmit2
 618              		.comm	transmitbuffer2,2,4
 619              		.global	duty_cycle2
 620              		.global	integral2
 621              		.global	derivative2
 622              		.global	last_error2
 623              		.global	error2
 624              		.global	target2
 625              		.global	cnt2
 626              		.global	stopbyte1
 627              		.comm	transmitbuffer1,2,4
 628              		.global	duty_cycle1
 629              		.global	integral1
 630              		.global	derivative1
 631              		.global	last_error1
ARM GAS  C:\Users\Caesar\AppData\Local\Temp\cca5y8nl.s 			page 18


 632              		.global	error1
 633              		.global	target1
 634              		.global	cnt1
 635              		.data
 636              		.set	.LANCHOR0,. + 0
 637              		.type	stopbyte1, %object
 638              		.size	stopbyte1, 1
 639              	stopbyte1:
 640 0000 78       		.byte	120
 641              		.type	stopbyte2, %object
 642              		.size	stopbyte2, 1
 643              	stopbyte2:
 644 0001 79       		.byte	121
 645              		.type	multitasking, %object
 646              		.size	multitasking, 1
 647              	multitasking:
 648 0002 01       		.byte	1
 649              		.bss
 650              		.align	2
 651              		.set	.LANCHOR1,. + 0
 652              		.type	target1, %object
 653              		.size	target1, 2
 654              	target1:
 655 0000 0000     		.space	2
 656              		.type	target2, %object
 657              		.size	target2, 2
 658              	target2:
 659 0002 0000     		.space	2
 660              		.type	cnt1, %object
 661              		.size	cnt1, 2
 662              	cnt1:
 663 0004 0000     		.space	2
 664 0006 0000     		.space	2
 665              		.type	error1, %object
 666              		.size	error1, 4
 667              	error1:
 668 0008 00000000 		.space	4
 669              		.type	integral1, %object
 670              		.size	integral1, 4
 671              	integral1:
 672 000c 00000000 		.space	4
 673              		.type	last_error1, %object
 674              		.size	last_error1, 4
 675              	last_error1:
 676 0010 00000000 		.space	4
 677              		.type	derivative1, %object
 678              		.size	derivative1, 4
 679              	derivative1:
 680 0014 00000000 		.space	4
 681              		.type	duty_cycle1, %object
 682              		.size	duty_cycle1, 4
 683              	duty_cycle1:
 684 0018 00000000 		.space	4
 685              		.type	cnt2, %object
 686              		.size	cnt2, 2
 687              	cnt2:
 688 001c 0000     		.space	2
ARM GAS  C:\Users\Caesar\AppData\Local\Temp\cca5y8nl.s 			page 19


 689 001e 0000     		.space	2
 690              		.type	error2, %object
 691              		.size	error2, 4
 692              	error2:
 693 0020 00000000 		.space	4
 694              		.type	integral2, %object
 695              		.size	integral2, 4
 696              	integral2:
 697 0024 00000000 		.space	4
 698              		.type	last_error2, %object
 699              		.size	last_error2, 4
 700              	last_error2:
 701 0028 00000000 		.space	4
 702              		.type	derivative2, %object
 703              		.size	derivative2, 4
 704              	derivative2:
 705 002c 00000000 		.space	4
 706              		.type	duty_cycle2, %object
 707              		.size	duty_cycle2, 4
 708              	duty_cycle2:
 709 0030 00000000 		.space	4
 710              		.type	transmit, %object
 711              		.size	transmit, 4
 712              	transmit:
 713 0034 00000000 		.space	4
 714              		.type	transmit2, %object
 715              		.size	transmit2, 4
 716              	transmit2:
 717 0038 00000000 		.space	4
 718              		.text
 719              	.Letext0:
 720              		.file 2 "d:\\psoc creator\\4.2\\psoc creator\\import\\gnu\\arm\\5.4.1\\arm-none-eabi\\include\\mac
 721              		.file 3 "d:\\psoc creator\\4.2\\psoc creator\\import\\gnu\\arm\\5.4.1\\arm-none-eabi\\include\\sys
 722              		.file 4 "Generated_Source\\PSoC5/cytypes.h"
 723              		.file 5 "Generated_Source\\PSoC5/core_cm3.h"
 724              		.file 6 "d:\\psoc creator\\4.2\\psoc creator\\import\\gnu\\arm\\5.4.1\\arm-none-eabi\\include\\str
 725              		.file 7 "Generated_Source\\PSoC5/UART.h"
 726              		.file 8 "d:\\psoc creator\\4.2\\psoc creator\\import\\gnu\\arm\\5.4.1\\arm-none-eabi\\include\\std
 727              		.file 9 "Generated_Source\\PSoC5/QuadDec_1.h"
 728              		.file 10 "Generated_Source\\PSoC5/PWM_1.h"
 729              		.file 11 "Generated_Source\\PSoC5/Direction_1_1.h"
 730              		.file 12 "Generated_Source\\PSoC5/Direction_1_2.h"
 731              		.file 13 "Generated_Source\\PSoC5/QuadDec_2.h"
 732              		.file 14 "Generated_Source\\PSoC5/PWM_2.h"
 733              		.file 15 "Generated_Source\\PSoC5/Direction_2_1.h"
 734              		.file 16 "Generated_Source\\PSoC5/Direction_2_2.h"
 735              		.file 17 "Generated_Source\\PSoC5/Timer.h"
 736              		.file 18 "Generated_Source\\PSoC5/isr_motor.h"
 737              		.file 19 "Generated_Source\\PSoC5/isr_1.h"